target datalayout = "e-m:e-p270:32:32-p271:32:32-p272:64:64-i64:64-i128:128-f80:128-n8:16:32:64-S128"
target triple = "x86_64-pc-linux-gnu"

%struct.expert_field = type { i32, i32 }
%struct._packet_info = type { ptr, ptr, i32, i32, %struct.nstime_t, %struct.nstime_t, %struct.nstime_t, i32, ptr, ptr, ptr, ptr, %struct._address, %struct._address, %struct._address, %struct._address, %struct._address, %struct._address, i32, ptr, i32, %struct.anon, i32, i32, i32, i32, ptr, i32, ptr, ptr, i16, i16, i32, i32, i16, i32, i32, ptr, ptr, ptr, i8, i8, i16, i16, i16, i32, i16, i16, ptr, ptr, ptr, ptr, ptr, i32 }
%struct.nstime_t = type { i64, i32 }
%struct._address = type { i32, i32, ptr, ptr }
%struct.anon = type { i8, [3 x i8] }
%struct.tcpheader = type { i32, i32, i32, i32, i32, i32, i32, i16, i16, i8, i32, i16, i32, %struct._address, %struct._address, i8, [4 x i32], [4 x i32], ptr }

@hf_tcp_option_kind = internal global i32 0, align 4
@hf_tcp_option_len = internal global i32 0, align 4
@hf_tcp_option_mss_val = internal global i32 0, align 4
@ett_tcp_option_mss = internal global i32 0, align 4
@ei_tcp_opt_len_invalid = internal global %struct.expert_field zeroinitializer, align 4
@ei_tcp_option_mss_present = internal global %struct.expert_field zeroinitializer, align 4
@proto_tcp_option_mss = internal global i32 0, align 4
@.str.799 = private unnamed_addr constant [2 x i8] c" \00", align 1
@.str.985 = private unnamed_addr constant [27 x i8] c"option length should be %u\00", align 1
@.str.986 = private unnamed_addr constant [11 x i8] c": %u bytes\00", align 1
@.str.987 = private unnamed_addr constant [4 x i8] c"MSS\00", align 1

; Function Attrs: nounwind uwtable
define internal void @tcp_info_append_uint(ptr noundef %0, ptr noundef %1, i32 noundef %2) #0 {
  %4 = alloca ptr, align 8
  %5 = alloca ptr, align 8
  %6 = alloca i32, align 4
  store ptr %0, ptr %4, align 8
  store ptr %1, ptr %5, align 8
  store i32 %2, ptr %6, align 4
  %7 = load ptr, ptr %4, align 8
  %8 = getelementptr inbounds %struct._packet_info, ptr %7, i32 0, i32 1
  %9 = load ptr, ptr %8, align 8
  %10 = load ptr, ptr %5, align 8
  %11 = load i32, ptr %6, align 4
  call void @col_append_str_uint(ptr noundef %9, i32 noundef 25, ptr noundef %10, i32 noundef %11, ptr noundef @.str.799)
  ret void
}

; Function Attrs: nounwind uwtable
define internal i32 @tcp_option_len_check(ptr noundef %0, ptr noundef %1, i32 noundef %2, i32 noundef %3) #0 {
  %5 = alloca i32, align 4
  %6 = alloca ptr, align 8
  %7 = alloca ptr, align 8
  %8 = alloca i32, align 4
  %9 = alloca i32, align 4
  store ptr %0, ptr %6, align 8
  store ptr %1, ptr %7, align 8
  store i32 %2, ptr %8, align 4
  store i32 %3, ptr %9, align 4
  %10 = load i32, ptr %8, align 4
  %11 = load i32, ptr %9, align 4
  %12 = icmp ne i32 %10, %11
  br i1 %12, label %13, label %18

13:                                               ; preds = %4
  %14 = load ptr, ptr %7, align 8
  %15 = load ptr, ptr %6, align 8
  %16 = load i32, ptr %9, align 4
  %17 = call ptr (ptr, ptr, ptr, ptr, ...) @expert_add_info_format(ptr noundef %14, ptr noundef %15, ptr noundef @ei_tcp_opt_len_invalid, ptr noundef @.str.985, i32 noundef %16)
  store i32 0, ptr %5, align 4
  br label %19

18:                                               ; preds = %4
  store i32 1, ptr %5, align 4
  br label %19

19:                                               ; preds = %18, %13
  %20 = load i32, ptr %5, align 4
  ret i32 %20
}

; Function Attrs: nounwind uwtable
define internal i32 @dissect_tcpopt_mss(ptr noundef %0, ptr noundef %1, ptr noundef %2, ptr noundef %3) #0 {
  %5 = alloca i32, align 4
  %6 = alloca ptr, align 8
  %7 = alloca ptr, align 8
  %8 = alloca ptr, align 8
  %9 = alloca ptr, align 8
  %10 = alloca ptr, align 8
  %11 = alloca ptr, align 8
  %12 = alloca ptr, align 8
  %13 = alloca i32, align 4
  %14 = alloca ptr, align 8
  %15 = alloca i32, align 4
  store ptr %0, ptr %6, align 8
  store ptr %1, ptr %7, align 8
  store ptr %2, ptr %8, align 8
  store ptr %3, ptr %9, align 8
  store i32 0, ptr %13, align 4
  %16 = load ptr, ptr %9, align 8
  store ptr %16, ptr %14, align 8
  %17 = load ptr, ptr %8, align 8
  %18 = load i32, ptr @proto_tcp_option_mss, align 4
  %19 = load ptr, ptr %6, align 8
  %20 = load i32, ptr %13, align 4
  %21 = call ptr @proto_tree_add_item(ptr noundef %17, i32 noundef %18, ptr noundef %19, i32 noundef %20, i32 noundef -1, i32 noundef 0)
  store ptr %21, ptr %10, align 8
  %22 = load ptr, ptr %10, align 8
  %23 = load i32, ptr @ett_tcp_option_mss, align 4
  %24 = call ptr @proto_item_add_subtree(ptr noundef %22, i32 noundef %23)
  store ptr %24, ptr %11, align 8
  %25 = load ptr, ptr %14, align 8
  %26 = getelementptr inbounds %struct.tcpheader, ptr %25, i32 0, i32 11
  %27 = load i16, ptr %26, align 8
  %28 = zext i16 %27 to i32
  %29 = and i32 %28, 2
  %30 = icmp ne i32 %29, 0
  br i1 %30, label %35, label %31

31:                                               ; preds = %4
  %32 = load ptr, ptr %7, align 8
  %33 = load ptr, ptr %10, align 8
  %34 = call ptr @expert_add_info(ptr noundef %32, ptr noundef %33, ptr noundef @ei_tcp_option_mss_present)
  br label %35

35:                                               ; preds = %31, %4
  %36 = load ptr, ptr %11, align 8
  %37 = load i32, ptr @hf_tcp_option_kind, align 4
  %38 = load ptr, ptr %6, align 8
  %39 = load i32, ptr %13, align 4
  %40 = call ptr @proto_tree_add_item(ptr noundef %36, i32 noundef %37, ptr noundef %38, i32 noundef %39, i32 noundef 1, i32 noundef 0)
  %41 = load ptr, ptr %11, align 8
  %42 = load i32, ptr @hf_tcp_option_len, align 4
  %43 = load ptr, ptr %6, align 8
  %44 = load i32, ptr %13, align 4
  %45 = add i32 %44, 1
  %46 = call ptr @proto_tree_add_item(ptr noundef %41, i32 noundef %42, ptr noundef %43, i32 noundef %45, i32 noundef 1, i32 noundef 0)
  store ptr %46, ptr %12, align 8
  %47 = load ptr, ptr %12, align 8
  %48 = load ptr, ptr %7, align 8
  %49 = load ptr, ptr %6, align 8
  %50 = call i32 @tvb_reported_length(ptr noundef %49)
  %51 = call i32 @tcp_option_len_check(ptr noundef %47, ptr noundef %48, i32 noundef %50, i32 noundef 4)
  %52 = icmp ne i32 %51, 0
  br i1 %52, label %56, label %53

53:                                               ; preds = %35
  %54 = load ptr, ptr %6, align 8
  %55 = call i32 @tvb_captured_length(ptr noundef %54)
  store i32 %55, ptr %5, align 4
  br label %69

56:                                               ; preds = %35
  %57 = load ptr, ptr %11, align 8
  %58 = load i32, ptr @hf_tcp_option_mss_val, align 4
  %59 = load ptr, ptr %6, align 8
  %60 = load i32, ptr %13, align 4
  %61 = add i32 %60, 2
  %62 = call ptr @proto_tree_add_item_ret_uint(ptr noundef %57, i32 noundef %58, ptr noundef %59, i32 noundef %61, i32 noundef 2, i32 noundef 0, ptr noundef %15)
  %63 = load ptr, ptr %10, align 8
  %64 = load i32, ptr %15, align 4
  call void (ptr, ptr, ...) @proto_item_append_text(ptr noundef %63, ptr noundef @.str.986, i32 noundef %64)
  %65 = load ptr, ptr %7, align 8
  %66 = load i32, ptr %15, align 4
  call void @tcp_info_append_uint(ptr noundef %65, ptr noundef @.str.987, i32 noundef %66)
  %67 = load ptr, ptr %6, align 8
  %68 = call i32 @tvb_captured_length(ptr noundef %67)
  store i32 %68, ptr %5, align 4
  br label %69

69:                                               ; preds = %56, %53
  %70 = load i32, ptr %5, align 4
  ret i32 %70
}