; Function Attrs: nounwind uwtable
define internal i32 @dissect_tcpopt_mss(ptr noundef %0, ptr noundef %1, ptr noundef %2, ptr noundef readonly captures(none) %3) #0 {
  %5 = alloca i32, align 4
  %6 = load i32, ptr @proto_tcp_option_mss, align 4
  %7 = tail call ptr @proto_tree_add_item(ptr noundef %2, i32 noundef %6, ptr noundef %0, i32 noundef 0, i32 noundef -1, i32 noundef 0) #20
  %8 = load i32, ptr @ett_tcp_option_mss, align 4
  %9 = tail call ptr @proto_item_add_subtree(ptr noundef %7, i32 noundef %8) #20
  %10 = getelementptr inbounds nuw i8, ptr %3, i64 40
  %11 = load i16, ptr %10, align 8
  %12 = and i16 %11, 2
  %.not = icmp eq i16 %12, 0
  br i1 %.not, label %13, label %15

13:                                               ; preds = %4
  %14 = tail call ptr @expert_add_info(ptr noundef %1, ptr noundef %7, ptr noundef nonnull @ei_tcp_option_mss_present) #20
  br label %15

15:                                               ; preds = %13, %4
  %16 = load i32, ptr @hf_tcp_option_kind, align 4
  %17 = tail call ptr @proto_tree_add_item(ptr noundef %9, i32 noundef %16, ptr noundef %0, i32 noundef 0, i32 noundef 1, i32 noundef 0) #20
  %18 = load i32, ptr @hf_tcp_option_len, align 4
  %19 = tail call ptr @proto_tree_add_item(ptr noundef %9, i32 noundef %18, ptr noundef %0, i32 noundef 1, i32 noundef 1, i32 noundef 0) #20
  %20 = tail call i32 @tvb_reported_length(ptr noundef %0) #20
  %.not.i = icmp eq i32 %20, 4
  br i1 %.not.i, label %tcp_option_len_check.exit, label %21

21:                                               ; preds = %15
  %22 = tail call ptr (ptr, ptr, ptr, ptr, ...) @expert_add_info_format(ptr noundef %1, ptr noundef %19, ptr noundef nonnull @ei_tcp_opt_len_invalid, ptr noundef nonnull @.str.985, i32 noundef 4) #20
  %23 = tail call i32 @tvb_captured_length(ptr noundef %0) #20
  br label %30

tcp_option_len_check.exit:                        ; preds = %15
  %24 = load i32, ptr @hf_tcp_option_mss_val, align 4
  %25 = call ptr @proto_tree_add_item_ret_uint(ptr noundef %9, i32 noundef %24, ptr noundef %0, i32 noundef 2, i32 noundef 2, i32 noundef 0, ptr noundef nonnull %5) #20
  %26 = load i32, ptr %5, align 4
  call void (ptr, ptr, ...) @proto_item_append_text(ptr noundef %7, ptr noundef nonnull @.str.986, i32 noundef %26) #20
  %27 = load i32, ptr %5, align 4
  %28 = getelementptr i8, ptr %1, i64 8
  %.val = load ptr, ptr %28, align 8
  call void @col_append_str_uint(ptr noundef %.val, i32 noundef 25, ptr noundef nonnull @.str.987, i32 noundef %27, ptr noundef nonnull @.str.799) #20
  %29 = call i32 @tvb_captured_length(ptr noundef %0) #20
  br label %30

30:                                               ; preds = %tcp_option_len_check.exit, %21
  %.0 = phi i32 [ %29, %tcp_option_len_check.exit ], [ %23, %21 ]
  ret i32 %.0
}